(dp0
S'Berlin'
p1
(lp2
S'C:\\workspace\\BS_UE4\\src/aslf.txt'
p3
aS'C:\\workspace\\BS_UE4\\src/dsf.txt'
p4
aS'C:\\workspace\\BS_UE4\\src/ioashf.txt'
p5
aS'C:\\workspace\\BS_UE4\\src\\kausg/mcuw.txt'
p6
aS'C:\\workspace\\BS_UE4\\src\\kausg\\asdasd/csezn7t.txt'
p7
asS'Gransee'
p8
(lp9
g3
ag4
ag7
asS'Potsdam'
p10
(lp11
g3
ag5
ag6
as.